target datalayout = "e-m:e-p270:32:32-p271:32:32-p272:64:64-i64:64-i128:128-f80:128-n8:16:32:64-S128"
target triple = "x86_64-pc-linux-gnu"

@.str.3 = private unnamed_addr constant [2 x i8] c"\0A\00", align 1
@.str.4 = private unnamed_addr constant [50 x i8] c"    memory_share [-nosat] [-nowiden] [selection]\0A\00", align 1
@.str.5 = private unnamed_addr constant [68 x i8] c"This pass merges share-able memory ports into single memory ports.\0A\00", align 1
@.str.6 = private unnamed_addr constant [75 x i8] c"The following methods are used to consolidate the number of memory ports:\0A\00", align 1
@.str.7 = private unnamed_addr constant [78 x i8] c"  - When multiple write ports access the same address then this is converted\0A\00", align 1
@.str.8 = private unnamed_addr constant [79 x i8] c"    to a single write port with a more complex data and/or enable logic path.\0A\00", align 1
@.str.9 = private unnamed_addr constant [79 x i8] c"  - When multiple read or write ports access adjacent aligned addresses, they\0A\00", align 1
@.str.10 = private unnamed_addr constant [81 x i8] c"    are merged to a single wide read or write port.  This transformation can be\0A\00", align 1
@.str.11 = private unnamed_addr constant [42 x i8] c"    disabled with the \22-nowiden\22 option.\0A\00", align 1
@.str.12 = private unnamed_addr constant [74 x i8] c"  - When multiple write ports are never accessed at the same time (a SAT\0A\00", align 1
@.str.13 = private unnamed_addr constant [80 x i8] c"    solver is used to determine this), then the ports are merged into a single\0A\00", align 1
@.str.14 = private unnamed_addr constant [80 x i8] c"    write port.  This transformation can be disabled with the \22-nosat\22 option.\0A\00", align 1
@.str.15 = private unnamed_addr constant [78 x i8] c"Note that in addition to the algorithms implemented in this pass, the $memrd\0A\00", align 1
@.str.16 = private unnamed_addr constant [81 x i8] c"and $memwr cells are also subject to generic resource sharing passes (and other\0A\00", align 1
@.str.17 = private unnamed_addr constant [49 x i8] c"optimizations) such as \22share\22 and \22opt_merge\22.\0A\00", align 1

; Function Attrs: mustprogress uwtable
define internal void @_ZN12_GLOBAL__N_115MemorySharePass4helpEv(ptr noundef nonnull align 8 dereferenceable(104) %0) unnamed_addr #4 align 2 {
  %2 = alloca ptr, align 8
  store ptr %0, ptr %2, align 8
  call void (ptr, ...) @_ZN5Yosys3logEPKcz(ptr noundef @.str.3)
  call void (ptr, ...) @_ZN5Yosys3logEPKcz(ptr noundef @.str.4)
  call void (ptr, ...) @_ZN5Yosys3logEPKcz(ptr noundef @.str.3)
  call void (ptr, ...) @_ZN5Yosys3logEPKcz(ptr noundef @.str.5)
  call void (ptr, ...) @_ZN5Yosys3logEPKcz(ptr noundef @.str.3)
  call void (ptr, ...) @_ZN5Yosys3logEPKcz(ptr noundef @.str.6)
  call void (ptr, ...) @_ZN5Yosys3logEPKcz(ptr noundef @.str.3)
  call void (ptr, ...) @_ZN5Yosys3logEPKcz(ptr noundef @.str.7)
  call void (ptr, ...) @_ZN5Yosys3logEPKcz(ptr noundef @.str.8)
  call void (ptr, ...) @_ZN5Yosys3logEPKcz(ptr noundef @.str.3)
  call void (ptr, ...) @_ZN5Yosys3logEPKcz(ptr noundef @.str.9)
  call void (ptr, ...) @_ZN5Yosys3logEPKcz(ptr noundef @.str.10)
  call void (ptr, ...) @_ZN5Yosys3logEPKcz(ptr noundef @.str.11)
  call void (ptr, ...) @_ZN5Yosys3logEPKcz(ptr noundef @.str.3)
  call void (ptr, ...) @_ZN5Yosys3logEPKcz(ptr noundef @.str.12)
  call void (ptr, ...) @_ZN5Yosys3logEPKcz(ptr noundef @.str.13)
  call void (ptr, ...) @_ZN5Yosys3logEPKcz(ptr noundef @.str.14)
  call void (ptr, ...) @_ZN5Yosys3logEPKcz(ptr noundef @.str.3)
  call void (ptr, ...) @_ZN5Yosys3logEPKcz(ptr noundef @.str.15)
  call void (ptr, ...) @_ZN5Yosys3logEPKcz(ptr noundef @.str.16)
  call void (ptr, ...) @_ZN5Yosys3logEPKcz(ptr noundef @.str.17)
  call void (ptr, ...) @_ZN5Yosys3logEPKcz(ptr noundef @.str.3)
  ret void
}